target datalayout = "e-m:e-p270:32:32-p271:32:32-p272:64:64-i64:64-i128:128-f80:128-n8:16:32:64-S128"
target triple = "x86_64-pc-linux-gnu"

%struct.SDL_AtomicInt = type { i32 }
%struct.SDL_error = type { i32, ptr, i64, ptr, ptr }
%struct.SDL_Thread = type { i64, i64, i32, %struct.SDL_AtomicInt, %struct.SDL_error, ptr, i64, ptr, ptr, ptr, ptr }

; Function Attrs: nounwind uwtable
define hidden void @SDL_WaitThread_REAL(ptr noundef %0, ptr noundef %1) #0 {
  %3 = alloca ptr, align 8
  %4 = alloca ptr, align 8
  store ptr %0, ptr %3, align 8
  store ptr %1, ptr %4, align 8
  %5 = load ptr, ptr %3, align 8
  %6 = call zeroext i1 @ThreadValid(ptr noundef %5)
  br i1 %6, label %13, label %7

7:                                                ; preds = %2
  %8 = load ptr, ptr %4, align 8
  %9 = icmp ne ptr %8, null
  br i1 %9, label %10, label %12

10:                                               ; preds = %7
  %11 = load ptr, ptr %4, align 8
  store i32 -1, ptr %11, align 4
  br label %12

12:                                               ; preds = %10, %7
  br label %28

13:                                               ; preds = %2
  %14 = load ptr, ptr %3, align 8
  call void @SDL_SYS_WaitThread(ptr noundef %14)
  %15 = load ptr, ptr %4, align 8
  %16 = icmp ne ptr %15, null
  br i1 %16, label %17, label %22

17:                                               ; preds = %13
  %18 = load ptr, ptr %3, align 8
  %19 = getelementptr inbounds nuw %struct.SDL_Thread, ptr %18, i32 0, i32 2
  %20 = load i32, ptr %19, align 8
  %21 = load ptr, ptr %4, align 8
  store i32 %20, ptr %21, align 4
  br label %22

22:                                               ; preds = %17, %13
  %23 = load ptr, ptr %3, align 8
  call void @SDL_SetObjectValid(ptr noundef %23, i32 noundef 10, i1 noundef zeroext false)
  %24 = load ptr, ptr %3, align 8
  %25 = getelementptr inbounds nuw %struct.SDL_Thread, ptr %24, i32 0, i32 5
  %26 = load ptr, ptr %25, align 8
  call void @SDL_free_REAL(ptr noundef %26)
  %27 = load ptr, ptr %3, align 8
  call void @SDL_free_REAL(ptr noundef %27)
  br label %28

28:                                               ; preds = %22, %12
  ret void
}

; Function Attrs: nounwind uwtable
define hidden i32 @SDL_GetThreadState_REAL(ptr noundef %0) #0 {
  %2 = alloca i32, align 4
  %3 = alloca ptr, align 8
  store ptr %0, ptr %3, align 8
  %4 = load ptr, ptr %3, align 8
  %5 = call zeroext i1 @ThreadValid(ptr noundef %4)
  br i1 %5, label %7, label %6

6:                                                ; preds = %1
  store i32 0, ptr %2, align 4
  br label %11

7:                                                ; preds = %1
  %8 = load ptr, ptr %3, align 8
  %9 = getelementptr inbounds nuw %struct.SDL_Thread, ptr %8, i32 0, i32 3
  %10 = call i32 @SDL_GetAtomicInt_REAL(ptr noundef %9)
  store i32 %10, ptr %2, align 4
  br label %11

11:                                               ; preds = %7, %6
  %12 = load i32, ptr %2, align 4
  ret i32 %12
}

; Function Attrs: nounwind uwtable
define internal zeroext i1 @ThreadValid(ptr noundef %0) #0 {
  %2 = alloca ptr, align 8
  store ptr %0, ptr %2, align 8
  %3 = load ptr, ptr %2, align 8
  %4 = call zeroext i1 @SDL_ObjectValid(ptr noundef %3, i32 noundef 10)
  ret i1 %4
}

; Function Attrs: nounwind uwtable
define hidden void @SDL_DetachThread_REAL(ptr noundef %0) #0 {
  %2 = alloca ptr, align 8
  %3 = alloca i32, align 4
  %4 = alloca i32, align 4
  store ptr %0, ptr %2, align 8
  %5 = load ptr, ptr %2, align 8
  %6 = call zeroext i1 @ThreadValid(ptr noundef %5)
  br i1 %6, label %8, label %7

7:                                                ; preds = %1
  br label %31

8:                                                ; preds = %1
  %9 = load ptr, ptr %2, align 8
  call void @SDL_SetObjectValid(ptr noundef %9, i32 noundef 10, i1 noundef zeroext false)
  %10 = load ptr, ptr %2, align 8
  %11 = getelementptr inbounds nuw %struct.SDL_Thread, ptr %10, i32 0, i32 3
  %12 = call zeroext i1 @SDL_CompareAndSwapAtomicInt_REAL(ptr noundef %11, i32 noundef 1, i32 noundef 2)
  br i1 %12, label %13, label %15

13:                                               ; preds = %8
  %14 = load ptr, ptr %2, align 8
  call void @SDL_SYS_DetachThread(ptr noundef %14)
  br label %31

15:                                               ; preds = %8
  call void @llvm.lifetime.start.p0(i64 4, ptr %3) #6
  %16 = load ptr, ptr %2, align 8
  %17 = call i32 @SDL_GetThreadState_REAL(ptr noundef %16)
  store i32 %17, ptr %3, align 4
  %18 = load i32, ptr %3, align 4
  %19 = icmp eq i32 %18, 2
  br i1 %19, label %20, label %21

20:                                               ; preds = %15
  store i32 1, ptr %4, align 4
  br label %28

21:                                               ; preds = %15
  %22 = load i32, ptr %3, align 4
  %23 = icmp eq i32 %22, 3
  br i1 %23, label %24, label %26

24:                                               ; preds = %21
  %25 = load ptr, ptr %2, align 8
  call void @SDL_WaitThread_REAL(ptr noundef %25, ptr noundef null)
  br label %26

26:                                               ; preds = %24, %21
  br label %27

27:                                               ; preds = %26
  store i32 0, ptr %4, align 4
  br label %28

28:                                               ; preds = %27, %20
  call void @llvm.lifetime.end.p0(i64 4, ptr %3) #6
  %29 = load i32, ptr %4, align 4
  switch i32 %29, label %32 [
    i32 0, label %30
    i32 1, label %31
  ]

30:                                               ; preds = %28
  br label %31

31:                                               ; preds = %7, %28, %30, %13
  ret void

32:                                               ; preds = %28
  unreachable
}