; Function Attrs: nounwind uwtable
define hidden void @SDL_DetachThread_REAL(ptr noundef %0) local_unnamed_addr #0 {
  %2 = tail call zeroext i1 @SDL_ObjectValid(ptr noundef %0, i32 noundef 10) #6
  br i1 %2, label %3, label %SDL_WaitThread_REAL.exit

3:                                                ; preds = %1
  tail call void @SDL_SetObjectValid(ptr noundef %0, i32 noundef 10, i1 noundef zeroext false) #6
  %4 = getelementptr inbounds nuw i8, ptr %0, i64 20
  %5 = tail call zeroext i1 @SDL_CompareAndSwapAtomicInt_REAL(ptr noundef nonnull %4, i32 noundef 1, i32 noundef 2) #6
  br i1 %5, label %6, label %7

6:                                                ; preds = %3
  tail call void @SDL_SYS_DetachThread(ptr noundef nonnull %0) #6
  br label %SDL_WaitThread_REAL.exit

7:                                                ; preds = %3
  %8 = tail call zeroext i1 @SDL_ObjectValid(ptr noundef nonnull %0, i32 noundef 10) #6
  br i1 %8, label %SDL_GetThreadState_REAL.exit, label %SDL_WaitThread_REAL.exit

SDL_GetThreadState_REAL.exit:                     ; preds = %7
  %9 = tail call i32 @SDL_GetAtomicInt_REAL(ptr noundef nonnull %4) #6
  %cond = icmp eq i32 %9, 3
  br i1 %cond, label %10, label %SDL_WaitThread_REAL.exit

10:                                               ; preds = %SDL_GetThreadState_REAL.exit
  %11 = tail call zeroext i1 @SDL_ObjectValid(ptr noundef nonnull %0, i32 noundef 10) #6
  br i1 %11, label %12, label %SDL_WaitThread_REAL.exit

12:                                               ; preds = %10
  tail call void @SDL_SYS_WaitThread(ptr noundef nonnull %0) #6
  tail call void @SDL_SetObjectValid(ptr noundef nonnull %0, i32 noundef 10, i1 noundef zeroext false) #6
  %13 = getelementptr inbounds nuw i8, ptr %0, i64 64
  %14 = load ptr, ptr %13, align 8
  tail call void @SDL_free_REAL(ptr noundef %14) #6
  tail call void @SDL_free_REAL(ptr noundef nonnull %0) #6
  br label %SDL_WaitThread_REAL.exit

SDL_WaitThread_REAL.exit:                         ; preds = %7, %12, %10, %SDL_GetThreadState_REAL.exit, %1, %6
  ret void
}